; ModuleID = '21/1498.c'
source_filename = "21/1498.c"
target datalayout = "e-m:e-p270:32:32-p271:32:32-p272:64:64-i64:64-f80:128-n8:16:32:64-S128"
target triple = "x86_64-pc-linux-gnu"

@.str = private unnamed_addr constant [3 x i8] c"%d\00", align 1
@.str.1 = private unnamed_addr constant [4 x i8] c",%d\00", align 1

; Function Attrs: noinline nounwind uwtable
define dso_local void @main() #0 {
  %1 = alloca i32, align 4
  %2 = alloca i32, align 4
  %3 = alloca i32, align 4
  %4 = alloca i32, align 4
  %5 = alloca i32, align 4
  %6 = alloca i32*, align 8
  %7 = alloca float, align 4
  %8 = alloca float*, align 8
  %9 = alloca float, align 4
  store i32 0, i32* %5, align 4
  store float 0.000000e+00, float* %7, align 4
  store float 0.000000e+00, float* %9, align 4
  %10 = call i32 (i8*, ...) @__isoc99_scanf(i8* getelementptr inbounds ([3 x i8], [3 x i8]* @.str, i64 0, i64 0), i32* %1)
  %11 = load i32, i32* %1, align 4
  %12 = sext i32 %11 to i64
  %13 = mul i64 %12, 4
  %14 = call noalias i8* @malloc(i64 %13) #4
  %15 = bitcast i8* %14 to i32*
  store i32* %15, i32** %6, align 8
  %16 = load i32, i32* %1, align 4
  %17 = sext i32 %16 to i64
  %18 = mul i64 %17, 4
  %19 = call noalias i8* @malloc(i64 %18) #4
  %20 = bitcast i8* %19 to float*
  store float* %20, float** %8, align 8
  store i32 0, i32* %2, align 4
  br label %21

21:                                               ; preds = %31, %0
  %22 = load i32, i32* %2, align 4
  %23 = load i32, i32* %1, align 4
  %24 = icmp slt i32 %22, %23
  br i1 %24, label %25, label %34

25:                                               ; preds = %21
  %26 = load i32*, i32** %6, align 8
  %27 = load i32, i32* %2, align 4
  %28 = sext i32 %27 to i64
  %29 = getelementptr inbounds i32, i32* %26, i64 %28
  %30 = call i32 (i8*, ...) @__isoc99_scanf(i8* getelementptr inbounds ([3 x i8], [3 x i8]* @.str, i64 0, i64 0), i32* %29)
  br label %31

31:                                               ; preds = %25
  %32 = load i32, i32* %2, align 4
  %33 = add nsw i32 %32, 1
  store i32 %33, i32* %2, align 4
  br label %21

34:                                               ; preds = %21
  %35 = load i32, i32* %1, align 4
  %36 = sub nsw i32 %35, 1
  store i32 %36, i32* %2, align 4
  br label %37

37:                                               ; preds = %85, %34
  %38 = load i32, i32* %2, align 4
  %39 = icmp sgt i32 %38, 0
  br i1 %39, label %40, label %88

40:                                               ; preds = %37
  store i32 0, i32* %3, align 4
  br label %41

41:                                               ; preds = %81, %40
  %42 = load i32, i32* %3, align 4
  %43 = load i32, i32* %2, align 4
  %44 = icmp slt i32 %42, %43
  br i1 %44, label %45, label %84

45:                                               ; preds = %41
  %46 = load i32*, i32** %6, align 8
  %47 = load i32, i32* %3, align 4
  %48 = sext i32 %47 to i64
  %49 = getelementptr inbounds i32, i32* %46, i64 %48
  %50 = load i32, i32* %49, align 4
  %51 = load i32*, i32** %6, align 8
  %52 = load i32, i32* %3, align 4
  %53 = sext i32 %52 to i64
  %54 = getelementptr inbounds i32, i32* %51, i64 %53
  %55 = getelementptr inbounds i32, i32* %54, i64 1
  %56 = load i32, i32* %55, align 4
  %57 = icmp sgt i32 %50, %56
  br i1 %57, label %58, label %80

58:                                               ; preds = %45
  %59 = load i32*, i32** %6, align 8
  %60 = load i32, i32* %3, align 4
  %61 = sext i32 %60 to i64
  %62 = getelementptr inbounds i32, i32* %59, i64 %61
  %63 = load i32, i32* %62, align 4
  store i32 %63, i32* %4, align 4
  %64 = load i32*, i32** %6, align 8
  %65 = load i32, i32* %3, align 4
  %66 = sext i32 %65 to i64
  %67 = getelementptr inbounds i32, i32* %64, i64 %66
  %68 = getelementptr inbounds i32, i32* %67, i64 1
  %69 = load i32, i32* %68, align 4
  %70 = load i32*, i32** %6, align 8
  %71 = load i32, i32* %3, align 4
  %72 = sext i32 %71 to i64
  %73 = getelementptr inbounds i32, i32* %70, i64 %72
  store i32 %69, i32* %73, align 4
  %74 = load i32, i32* %4, align 4
  %75 = load i32*, i32** %6, align 8
  %76 = load i32, i32* %3, align 4
  %77 = sext i32 %76 to i64
  %78 = getelementptr inbounds i32, i32* %75, i64 %77
  %79 = getelementptr inbounds i32, i32* %78, i64 1
  store i32 %74, i32* %79, align 4
  br label %80

80:                                               ; preds = %58, %45
  br label %81

81:                                               ; preds = %80
  %82 = load i32, i32* %3, align 4
  %83 = add nsw i32 %82, 1
  store i32 %83, i32* %3, align 4
  br label %41

84:                                               ; preds = %41
  br label %85

85:                                               ; preds = %84
  %86 = load i32, i32* %2, align 4
  %87 = add nsw i32 %86, -1
  store i32 %87, i32* %2, align 4
  br label %37

88:                                               ; preds = %37
  store i32 0, i32* %2, align 4
  br label %89

89:                                               ; preds = %105, %88
  %90 = load i32, i32* %2, align 4
  %91 = load i32, i32* %1, align 4
  %92 = icmp slt i32 %90, %91
  br i1 %92, label %93, label %108

93:                                               ; preds = %89
  %94 = load float, float* %7, align 4
  %95 = load i32*, i32** %6, align 8
  %96 = load i32, i32* %2, align 4
  %97 = sext i32 %96 to i64
  %98 = getelementptr inbounds i32, i32* %95, i64 %97
  %99 = load i32, i32* %98, align 4
  %100 = sitofp i32 %99 to float
  %101 = load i32, i32* %1, align 4
  %102 = sitofp i32 %101 to float
  %103 = fdiv float %100, %102
  %104 = fadd float %94, %103
  store float %104, float* %7, align 4
  br label %105

105:                                              ; preds = %93
  %106 = load i32, i32* %2, align 4
  %107 = add nsw i32 %106, 1
  store i32 %107, i32* %2, align 4
  br label %89

108:                                              ; preds = %89
  store i32 0, i32* %2, align 4
  br label %109

109:                                              ; preds = %158, %108
  %110 = load i32, i32* %2, align 4
  %111 = load i32, i32* %1, align 4
  %112 = icmp slt i32 %110, %111
  br i1 %112, label %113, label %161

113:                                              ; preds = %109
  %114 = load float, float* %7, align 4
  %115 = load i32*, i32** %6, align 8
  %116 = load i32, i32* %2, align 4
  %117 = sext i32 %116 to i64
  %118 = getelementptr inbounds i32, i32* %115, i64 %117
  %119 = load i32, i32* %118, align 4
  %120 = sitofp i32 %119 to float
  %121 = fsub float %114, %120
  %122 = load float*, float** %8, align 8
  %123 = load i32, i32* %2, align 4
  %124 = sext i32 %123 to i64
  %125 = getelementptr inbounds float, float* %122, i64 %124
  store float %121, float* %125, align 4
  %126 = load float*, float** %8, align 8
  %127 = load i32, i32* %2, align 4
  %128 = sext i32 %127 to i64
  %129 = getelementptr inbounds float, float* %126, i64 %128
  %130 = load float, float* %129, align 4
  %131 = fcmp olt float %130, 0.000000e+00
  br i1 %131, label %132, label %143

132:                                              ; preds = %113
  %133 = load float*, float** %8, align 8
  %134 = load i32, i32* %2, align 4
  %135 = sext i32 %134 to i64
  %136 = getelementptr inbounds float, float* %133, i64 %135
  %137 = load float, float* %136, align 4
  %138 = fneg float %137
  %139 = load float*, float** %8, align 8
  %140 = load i32, i32* %2, align 4
  %141 = sext i32 %140 to i64
  %142 = getelementptr inbounds float, float* %139, i64 %141
  store float %138, float* %142, align 4
  br label %143

143:                                              ; preds = %132, %113
  %144 = load float*, float** %8, align 8
  %145 = load i32, i32* %2, align 4
  %146 = sext i32 %145 to i64
  %147 = getelementptr inbounds float, float* %144, i64 %146
  %148 = load float, float* %147, align 4
  %149 = load float, float* %9, align 4
  %150 = fcmp ogt float %148, %149
  br i1 %150, label %151, label %157

151:                                              ; preds = %143
  %152 = load float*, float** %8, align 8
  %153 = load i32, i32* %2, align 4
  %154 = sext i32 %153 to i64
  %155 = getelementptr inbounds float, float* %152, i64 %154
  %156 = load float, float* %155, align 4
  store float %156, float* %9, align 4
  br label %157

157:                                              ; preds = %151, %143
  br label %158

158:                                              ; preds = %157
  %159 = load i32, i32* %2, align 4
  %160 = add nsw i32 %159, 1
  store i32 %160, i32* %2, align 4
  br label %109

161:                                              ; preds = %109
  store i32 0, i32* %2, align 4
  br label %162

162:                                              ; preds = %181, %161
  %163 = load i32, i32* %2, align 4
  %164 = load i32, i32* %1, align 4
  %165 = icmp slt i32 %163, %164
  br i1 %165, label %166, label %184

166:                                              ; preds = %162
  %167 = load float*, float** %8, align 8
  %168 = load i32, i32* %2, align 4
  %169 = sext i32 %168 to i64
  %170 = getelementptr inbounds float, float* %167, i64 %169
  %171 = load float, float* %170, align 4
  %172 = load float, float* %9, align 4
  %173 = fsub float %171, %172
  %174 = fpext float %173 to double
  %175 = call double @llvm.fabs.f64(double %174)
  %176 = fcmp olt double %175, 1.000000e-03
  br i1 %176, label %177, label %180

177:                                              ; preds = %166
  %178 = load i32, i32* %5, align 4
  %179 = add nsw i32 %178, 1
  store i32 %179, i32* %5, align 4
  br label %180

180:                                              ; preds = %177, %166
  br label %181

181:                                              ; preds = %180
  %182 = load i32, i32* %2, align 4
  %183 = add nsw i32 %182, 1
  store i32 %183, i32* %2, align 4
  br label %162

184:                                              ; preds = %162
  store i32 0, i32* %2, align 4
  br label %185

185:                                              ; preds = %208, %184
  %186 = load i32, i32* %2, align 4
  %187 = load i32, i32* %1, align 4
  %188 = icmp slt i32 %186, %187
  br i1 %188, label %189, label %211

189:                                              ; preds = %185
  %190 = load float*, float** %8, align 8
  %191 = load i32, i32* %2, align 4
  %192 = sext i32 %191 to i64
  %193 = getelementptr inbounds float, float* %190, i64 %192
  %194 = load float, float* %193, align 4
  %195 = load float, float* %9, align 4
  %196 = fsub float %194, %195
  %197 = fpext float %196 to double
  %198 = call double @llvm.fabs.f64(double %197)
  %199 = fcmp olt double %198, 1.000000e-03
  br i1 %199, label %200, label %207

200:                                              ; preds = %189
  %201 = load i32*, i32** %6, align 8
  %202 = load i32, i32* %2, align 4
  %203 = sext i32 %202 to i64
  %204 = getelementptr inbounds i32, i32* %201, i64 %203
  %205 = load i32, i32* %204, align 4
  %206 = call i32 (i8*, ...) @printf(i8* getelementptr inbounds ([3 x i8], [3 x i8]* @.str, i64 0, i64 0), i32 %205)
  br label %211

207:                                              ; preds = %189
  br label %208

208:                                              ; preds = %207
  %209 = load i32, i32* %2, align 4
  %210 = add nsw i32 %209, 1
  store i32 %210, i32* %2, align 4
  br label %185

211:                                              ; preds = %200, %185
  %212 = load i32, i32* %2, align 4
  %213 = add nsw i32 %212, 1
  store i32 %213, i32* %2, align 4
  br label %214

214:                                              ; preds = %237, %211
  %215 = load i32, i32* %2, align 4
  %216 = load i32, i32* %1, align 4
  %217 = icmp slt i32 %215, %216
  br i1 %217, label %218, label %240

218:                                              ; preds = %214
  %219 = load float*, float** %8, align 8
  %220 = load i32, i32* %2, align 4
  %221 = sext i32 %220 to i64
  %222 = getelementptr inbounds float, float* %219, i64 %221
  %223 = load float, float* %222, align 4
  %224 = load float, float* %9, align 4
  %225 = fsub float %223, %224
  %226 = fpext float %225 to double
  %227 = call double @llvm.fabs.f64(double %226)
  %228 = fcmp olt double %227, 1.000000e-03
  br i1 %228, label %229, label %236

229:                                              ; preds = %218
  %230 = load i32*, i32** %6, align 8
  %231 = load i32, i32* %2, align 4
  %232 = sext i32 %231 to i64
  %233 = getelementptr inbounds i32, i32* %230, i64 %232
  %234 = load i32, i32* %233, align 4
  %235 = call i32 (i8*, ...) @printf(i8* getelementptr inbounds ([4 x i8], [4 x i8]* @.str.1, i64 0, i64 0), i32 %234)
  br label %236

236:                                              ; preds = %229, %218
  br label %237

237:                                              ; preds = %236
  %238 = load i32, i32* %2, align 4
  %239 = add nsw i32 %238, 1
  store i32 %239, i32* %2, align 4
  br label %214

240:                                              ; preds = %214
  ret void
}

declare dso_local i32 @__isoc99_scanf(i8*, ...) #1

; Function Attrs: nounwind
declare dso_local noalias i8* @malloc(i64) #2

; Function Attrs: nounwind readnone speculatable willreturn
declare double @llvm.fabs.f64(double) #3

declare dso_local i32 @printf(i8*, ...) #1


!llvm.module.flags = !{!0}
!llvm.ident = !{!1}

!0 = !{i32 1, !"wchar_size", i32 4}
!1 = !{!"clang version 10.0.0-4ubuntu1 "}
